target datalayout = "e-m:e-p270:32:32-p271:32:32-p272:64:64-i64:64-i128:128-f80:128-n8:16:32:64-S128"
target triple = "x86_64-pc-linux-gnu"

@s_SuppSize = internal global [1024 x i32] zeroinitializer, align 16

; Function Attrs: nounwind uwtable
define i32 @CompareSupports(ptr noundef %0, ptr noundef %1) #0 {
  %3 = alloca ptr, align 8
  %4 = alloca ptr, align 8
  store ptr %0, ptr %3, align 8, !tbaa !43
  store ptr %1, ptr %4, align 8, !tbaa !43
  %5 = load ptr, ptr %4, align 8, !tbaa !43
  %6 = load i32, ptr %5, align 4, !tbaa !12
  %7 = sext i32 %6 to i64
  %8 = getelementptr inbounds [1024 x i32], ptr @s_SuppSize, i64 0, i64 %7
  %9 = load i32, ptr %8, align 4, !tbaa !12
  %10 = load ptr, ptr %3, align 8, !tbaa !43
  %11 = load i32, ptr %10, align 4, !tbaa !12
  %12 = sext i32 %11 to i64
  %13 = getelementptr inbounds [1024 x i32], ptr @s_SuppSize, i64 0, i64 %12
  %14 = load i32, ptr %13, align 4, !tbaa !12
  %15 = sub nsw i32 %9, %14
  ret i32 %15
}