; Function Attrs: mustprogress nofree norecurse nosync nounwind willreturn memory(read, inaccessiblemem: none) uwtable
define i32 @CompareSupports(ptr noundef readonly captures(none) %0, ptr noundef readonly captures(none) %1) #6 {
  %3 = load i32, ptr %1, align 4, !tbaa !19
  %4 = sext i32 %3 to i64
  %5 = getelementptr inbounds [1024 x i32], ptr @s_SuppSize, i64 0, i64 %4
  %6 = load i32, ptr %5, align 4, !tbaa !19
  %7 = load i32, ptr %0, align 4, !tbaa !19
  %8 = sext i32 %7 to i64
  %9 = getelementptr inbounds [1024 x i32], ptr @s_SuppSize, i64 0, i64 %8
  %10 = load i32, ptr %9, align 4, !tbaa !19
  %11 = sub nsw i32 %6, %10
  ret i32 %11
}